(dp1
S'P4_232'
p2
(lp3
S'24m'
p4
aS'12l'
p5
aS'12k'
p6
aS'12j'
p7
aS'12i'
p8
aS'12h'
p9
aS'8g'
p10
aS'6f'
p11
aS'6e'
p12
aS'6d'
p13
aS'4c'
p14
aS'4b'
p15
aS'2a'
p16
asS'I4_132'
p17
(lp18
S'48i'
p19
aS'24h'
p20
aS'24g'
p21
aS'24f'
p22
aS'16e'
p23
aS'12d'
p24
aS'12c'
p25
aS'8b'
p26
aS'8a'
p27
asS'P432'
p28
(lp29
S'24k'
p30
ag7
ag8
ag9
ag10
ag11
ag12
aS'3d'
p31
aS'3c'
p32
aS'1b'
p33
aS'1a'
p34
asS'F23'
p35
(lp36
S'48h'
p37
ag21
ag22
ag23
aS'4d'
p38
ag14
ag15
aS'4a'
p39
asS'Pn-3'
p40
(lp41
g20
aS'12g'
p42
aS'12f'
p43
aS'8e'
p44
ag13
ag14
ag15
ag16
asS'Fd-3m'
p45
(lp46
S'192i'
p47
aS'96h'
p48
aS'96g'
p49
aS'48f'
p50
aS'32e'
p51
aS'16d'
p52
aS'16c'
p53
ag26
ag27
asS'P2_13'
p54
(lp55
S'12b'
p56
ag39
asS'Pm-3'
p57
(lp58
S'24l'
p59
ag6
ag7
aS'8i'
p60
aS'6h'
p61
aS'6g'
p62
ag11
ag12
ag31
ag32
ag33
ag34
asS'Im-3'
p63
(lp64
g37
ag21
aS'16f'
p65
aS'12e'
p66
ag24
aS'8c'
p67
aS'6b'
p68
ag16
asS'I2_13'
p69
(lp70
S'24c'
p71
ag56
ag27
asS'Pn-3n'
p72
(lp73
g19
ag20
ag21
ag65
ag66
ag24
ag67
ag68
ag16
asS'Pn-3m'
p74
(lp75
S'48l'
p76
ag30
aS'24j'
p77
aS'24i'
p78
ag20
ag42
ag43
ag44
ag13
ag14
ag15
ag16
asS'F4_132'
p79
(lp80
g48
aS'48g'
p81
ag50
ag51
ag52
ag53
ag26
ag27
asS'Pa-3'
p82
(lp83
S'24d'
p84
ag67
ag15
ag39
asS'Im-3m'
p85
(lp86
S'96l'
p87
aS'48k'
p88
aS'48j'
p89
ag19
ag20
ag21
ag65
ag66
ag24
ag67
ag68
ag16
asS'P4_332'
p90
(lp91
S'24e'
p92
ag24
ag67
ag15
ag39
asS'P4_132'
p93
(lp94
g92
ag24
ag67
ag15
ag39
asS'Ia-3'
p95
(lp96
S'48e'
p97
ag84
ag53
ag26
ag27
asS'I23'
p98
(lp99
g22
ag66
ag24
ag67
ag68
ag16
asS'Fm-3'
p100
(lp101
S'96i'
p102
ag37
ag81
aS'32f'
p103
ag92
ag84
ag67
ag15
ag39
asS'I432'
p104
(lp105
g89
ag78
ag20
ag21
ag65
ag66
ag24
ag67
ag68
ag16
asS'Ia-3d'
p106
(lp107
g48
ag81
ag50
ag51
ag84
ag71
aS'16b'
p108
aS'16a'
p109
asS'F-43m'
p110
(lp111
g102
ag37
ag21
ag22
ag23
ag38
ag14
ag15
ag39
asS'Fd-3'
p112
(lp113
g49
ag50
ag51
ag52
ag53
ag26
ag27
asS'F-43c'
p114
(lp115
g48
ag81
ag50
ag51
ag84
ag71
ag26
ag27
asS'Fm-3m'
p116
(lp117
S'192l'
p118
aS'96k'
p119
aS'96j'
p120
ag19
ag37
ag81
ag103
ag92
ag84
ag67
ag15
ag39
asS'P-43n'
p121
(lp122
g78
ag9
ag42
ag43
ag44
ag13
aS'6c'
p123
ag68
ag16
asS'P-43m'
p124
(lp125
g77
ag8
ag9
ag62
ag11
aS'4e'
p126
ag31
ag32
ag33
ag34
asS'Fd-3c'
p127
(lp128
S'192h'
p129
ag49
aS'96f'
p130
aS'64e'
p131
aS'48d'
p132
aS'32c'
p133
aS'32b'
p134
ag109
asS'Fm-3c'
p135
(lp136
S'192j'
p137
ag102
ag48
aS'64g'
p138
ag50
ag97
ag84
ag71
ag26
ag27
asS'I-43d'
p139
(lp140
g97
ag84
ag53
ag56
aS'12a'
p141
asS'F432'
p142
(lp143
g120
ag19
ag37
ag81
ag103
ag92
ag84
ag67
ag15
ag39
asS'P23'
p144
(lp145
g7
aS'6i'
p146
ag61
ag62
ag11
ag126
ag31
ag32
ag33
ag34
asS'I-43m'
p147
(lp148
g37
ag21
ag22
ag66
ag24
ag67
ag68
ag16
asS'Pm-3n'
p149
(lp150
g76
ag30
ag77
aS'16i'
p151
ag9
ag42
ag43
ag44
ag13
ag123
ag68
ag16
asS'Pm-3m'
p152
(lp153
S'48n'
p154
ag4
ag59
ag30
ag7
ag8
ag9
ag10
ag11
ag12
ag31
ag32
ag33
ag34
as.